target datalayout = "e-m:e-p270:32:32-p271:32:32-p272:64:64-i64:64-i128:128-f80:128-n8:16:32:64-S128"
target triple = "x86_64-pc-linux-gnu"

%struct.IndexTupleData = type { %struct.ItemPointerData, i16 }
%struct.ItemPointerData = type { %struct.BlockIdData, i16 }
%struct.BlockIdData = type { i16, i16 }

; Function Attrs: inlinehint nounwind uwtable
define internal i32 @BlockIdGetBlockNumber(ptr noundef %0) #2 {
  %2 = alloca ptr, align 8
  store ptr %0, ptr %2, align 8
  %3 = load ptr, ptr %2, align 8
  %4 = getelementptr inbounds nuw %struct.BlockIdData, ptr %3, i32 0, i32 0
  %5 = load i16, ptr %4, align 2
  %6 = zext i16 %5 to i32
  %7 = shl i32 %6, 16
  %8 = load ptr, ptr %2, align 8
  %9 = getelementptr inbounds nuw %struct.BlockIdData, ptr %8, i32 0, i32 1
  %10 = load i16, ptr %9, align 2
  %11 = zext i16 %10 to i32
  %12 = or i32 %7, %11
  ret i32 %12
}

; Function Attrs: inlinehint nounwind uwtable
define internal i32 @ItemPointerGetBlockNumberNoCheck(ptr noundef %0) #2 {
  %2 = alloca ptr, align 8
  store ptr %0, ptr %2, align 8
  %3 = load ptr, ptr %2, align 8
  %4 = getelementptr inbounds nuw %struct.ItemPointerData, ptr %3, i32 0, i32 0
  %5 = call i32 @BlockIdGetBlockNumber(ptr noundef %4)
  ret i32 %5
}

; Function Attrs: inlinehint nounwind uwtable
define internal i32 @BTreeTupleGetPostingOffset(ptr noundef %0) #2 {
  %2 = alloca ptr, align 8
  store ptr %0, ptr %2, align 8
  %3 = load ptr, ptr %2, align 8
  %4 = getelementptr inbounds nuw %struct.IndexTupleData, ptr %3, i32 0, i32 0
  %5 = call i32 @ItemPointerGetBlockNumberNoCheck(ptr noundef %4)
  ret i32 %5
}

; Function Attrs: inlinehint nounwind uwtable
define internal ptr @BTreeTupleGetPosting(ptr noundef %0) #2 {
  %2 = alloca ptr, align 8
  store ptr %0, ptr %2, align 8
  %3 = load ptr, ptr %2, align 8
  %4 = load ptr, ptr %2, align 8
  %5 = call i32 @BTreeTupleGetPostingOffset(ptr noundef %4)
  %6 = zext i32 %5 to i64
  %7 = getelementptr inbounds nuw i8, ptr %3, i64 %6
  ret ptr %7
}

; Function Attrs: inlinehint nounwind uwtable
define internal zeroext i1 @BTreeTupleIsPosting(ptr noundef %0) #2 {
  %2 = alloca i1, align 1
  %3 = alloca ptr, align 8
  store ptr %0, ptr %3, align 8
  %4 = load ptr, ptr %3, align 8
  %5 = getelementptr inbounds nuw %struct.IndexTupleData, ptr %4, i32 0, i32 1
  %6 = load i16, ptr %5, align 2
  %7 = zext i16 %6 to i32
  %8 = and i32 %7, 8192
  %9 = icmp eq i32 %8, 0
  br i1 %9, label %10, label %11

10:                                               ; preds = %1
  store i1 false, ptr %2, align 1
  br label %20

11:                                               ; preds = %1
  %12 = load ptr, ptr %3, align 8
  %13 = getelementptr inbounds nuw %struct.IndexTupleData, ptr %12, i32 0, i32 0
  %14 = call zeroext i16 @ItemPointerGetOffsetNumberNoCheck(ptr noundef %13)
  %15 = zext i16 %14 to i32
  %16 = and i32 %15, 8192
  %17 = icmp eq i32 %16, 0
  br i1 %17, label %18, label %19

18:                                               ; preds = %11
  store i1 false, ptr %2, align 1
  br label %20

19:                                               ; preds = %11
  store i1 true, ptr %2, align 1
  br label %20

20:                                               ; preds = %19, %18, %10
  %21 = load i1, ptr %2, align 1
  ret i1 %21
}

; Function Attrs: inlinehint nounwind uwtable
define internal i64 @IndexTupleSize(ptr noundef %0) #2 {
  %2 = alloca ptr, align 8
  store ptr %0, ptr %2, align 8
  %3 = load ptr, ptr %2, align 8
  %4 = getelementptr inbounds nuw %struct.IndexTupleData, ptr %3, i32 0, i32 1
  %5 = load i16, ptr %4, align 2
  %6 = zext i16 %5 to i32
  %7 = and i32 %6, 8191
  %8 = sext i32 %7 to i64
  ret i64 %8
}

; Function Attrs: inlinehint nounwind uwtable
define internal zeroext i16 @ItemPointerGetOffsetNumberNoCheck(ptr noundef %0) #2 {
  %2 = alloca ptr, align 8
  store ptr %0, ptr %2, align 8
  %3 = load ptr, ptr %2, align 8
  %4 = getelementptr inbounds nuw %struct.ItemPointerData, ptr %3, i32 0, i32 1
  %5 = load i16, ptr %4, align 2
  ret i16 %5
}

; Function Attrs: inlinehint nounwind uwtable
define internal zeroext i1 @BTreeTupleIsPivot(ptr noundef %0) #2 {
  %2 = alloca i1, align 1
  %3 = alloca ptr, align 8
  store ptr %0, ptr %3, align 8
  %4 = load ptr, ptr %3, align 8
  %5 = getelementptr inbounds nuw %struct.IndexTupleData, ptr %4, i32 0, i32 1
  %6 = load i16, ptr %5, align 2
  %7 = zext i16 %6 to i32
  %8 = and i32 %7, 8192
  %9 = icmp eq i32 %8, 0
  br i1 %9, label %10, label %11

10:                                               ; preds = %1
  store i1 false, ptr %2, align 1
  br label %20

11:                                               ; preds = %1
  %12 = load ptr, ptr %3, align 8
  %13 = getelementptr inbounds nuw %struct.IndexTupleData, ptr %12, i32 0, i32 0
  %14 = call zeroext i16 @ItemPointerGetOffsetNumberNoCheck(ptr noundef %13)
  %15 = zext i16 %14 to i32
  %16 = and i32 %15, 8192
  %17 = icmp ne i32 %16, 0
  br i1 %17, label %18, label %19

18:                                               ; preds = %11
  store i1 false, ptr %2, align 1
  br label %20

19:                                               ; preds = %11
  store i1 true, ptr %2, align 1
  br label %20

20:                                               ; preds = %19, %18, %10
  %21 = load i1, ptr %2, align 1
  ret i1 %21
}

; Function Attrs: inlinehint nounwind uwtable
define internal ptr @BTreeTupleGetHeapTID(ptr noundef %0) #2 {
  %2 = alloca ptr, align 8
  %3 = alloca ptr, align 8
  store ptr %0, ptr %3, align 8
  %4 = load ptr, ptr %3, align 8
  %5 = call zeroext i1 @BTreeTupleIsPivot(ptr noundef %4)
  br i1 %5, label %6, label %20

6:                                                ; preds = %1
  %7 = load ptr, ptr %3, align 8
  %8 = getelementptr inbounds nuw %struct.IndexTupleData, ptr %7, i32 0, i32 0
  %9 = call zeroext i16 @ItemPointerGetOffsetNumberNoCheck(ptr noundef %8)
  %10 = zext i16 %9 to i32
  %11 = and i32 %10, 4096
  %12 = icmp ne i32 %11, 0
  br i1 %12, label %13, label %19

13:                                               ; preds = %6
  %14 = load ptr, ptr %3, align 8
  %15 = load ptr, ptr %3, align 8
  %16 = call i64 @IndexTupleSize(ptr noundef %15)
  %17 = getelementptr inbounds nuw i8, ptr %14, i64 %16
  %18 = getelementptr inbounds i8, ptr %17, i64 -6
  store ptr %18, ptr %2, align 8
  br label %30

19:                                               ; preds = %6
  store ptr null, ptr %2, align 8
  br label %30

20:                                               ; preds = %1
  %21 = load ptr, ptr %3, align 8
  %22 = call zeroext i1 @BTreeTupleIsPosting(ptr noundef %21)
  br i1 %22, label %23, label %26

23:                                               ; preds = %20
  %24 = load ptr, ptr %3, align 8
  %25 = call ptr @BTreeTupleGetPosting(ptr noundef %24)
  store ptr %25, ptr %2, align 8
  br label %30

26:                                               ; preds = %20
  br label %27

27:                                               ; preds = %26
  %28 = load ptr, ptr %3, align 8
  %29 = getelementptr inbounds nuw %struct.IndexTupleData, ptr %28, i32 0, i32 0
  store ptr %29, ptr %2, align 8
  br label %30

30:                                               ; preds = %27, %23, %19, %13
  %31 = load ptr, ptr %2, align 8
  ret ptr %31
}