; Function Attrs: inlinehint mustprogress nofree norecurse nosync nounwind willreturn memory(argmem: read) uwtable
define internal fastcc ptr @BTreeTupleGetHeapTID(ptr noundef readonly captures(ret: address, provenance) %0) unnamed_addr #3 {
  %2 = getelementptr inbounds nuw i8, ptr %0, i64 6
  %3 = load i16, ptr %2, align 2
  %4 = and i16 %3, 8192
  %5 = icmp eq i16 %4, 0
  br i1 %5, label %BTreeTupleIsPosting.exit.thread, label %BTreeTupleIsPivot.exit

BTreeTupleIsPivot.exit:                           ; preds = %1
  %6 = getelementptr i8, ptr %0, i64 4
  %.val.i = load i16, ptr %6, align 2
  %7 = and i16 %.val.i, 8192
  %.not.i = icmp eq i16 %7, 0
  br i1 %.not.i, label %8, label %BTreeTupleIsPosting.exit

8:                                                ; preds = %BTreeTupleIsPivot.exit
  %9 = and i16 %.val.i, 4096
  %.not = icmp eq i16 %9, 0
  br i1 %.not, label %BTreeTupleIsPosting.exit.thread, label %10

10:                                               ; preds = %8
  %11 = and i16 %3, 8191
  %12 = zext nneg i16 %11 to i64
  %13 = getelementptr inbounds nuw i8, ptr %0, i64 %12
  %14 = getelementptr inbounds i8, ptr %13, i64 -6
  br label %BTreeTupleIsPosting.exit.thread

BTreeTupleIsPosting.exit:                         ; preds = %BTreeTupleIsPivot.exit
  %.val.i11 = load i16, ptr %0, align 2
  %15 = getelementptr i8, ptr %0, i64 2
  %.val2.i = load i16, ptr %15, align 2
  %16 = zext i16 %.val.i11 to i64
  %17 = shl nuw nsw i64 %16, 16
  %18 = zext i16 %.val2.i to i64
  %19 = or disjoint i64 %17, %18
  %20 = getelementptr inbounds nuw i8, ptr %0, i64 %19
  br label %BTreeTupleIsPosting.exit.thread

BTreeTupleIsPosting.exit.thread:                  ; preds = %1, %8, %BTreeTupleIsPosting.exit, %10
  %.0 = phi ptr [ %14, %10 ], [ %20, %BTreeTupleIsPosting.exit ], [ null, %8 ], [ %0, %1 ]
  ret ptr %.0
}